; Function Attrs: nounwind uwtable
define range(i32 -12, 1) i32 @ff_set_common_color_spaces_from_list(ptr noundef readonly captures(none) %0, ptr noundef readonly captures(address_is_null) %1) local_unnamed_addr #3 {
  %3 = alloca ptr, align 8
  call void @llvm.lifetime.start.p0(i64 8, ptr nonnull %3) #10
  %.not.i = icmp eq ptr %1, null
  br i1 %.not.i, label %.loopexit.i, label %.preheader.i

.preheader.i:                                     ; preds = %2, %.preheader.i
  %indvars.iv.i = phi i64 [ %indvars.iv.next.i, %.preheader.i ], [ 0, %2 ]
  %4 = getelementptr inbounds nuw i32, ptr %1, i64 %indvars.iv.i
  %5 = load i32, ptr %4, align 4, !tbaa !19
  %.not14.i = icmp eq i32 %5, -1
  %indvars.iv.next.i = add nuw nsw i64 %indvars.iv.i, 1
  br i1 %.not14.i, label %.loopexit.loopexit.i, label %.preheader.i, !llvm.loop !22

.loopexit.loopexit.i:                             ; preds = %.preheader.i
  %6 = trunc nuw nsw i64 %indvars.iv.i to i32
  br label %.loopexit.i

.loopexit.i:                                      ; preds = %.loopexit.loopexit.i, %2
  %.0.i = phi i32 [ 0, %2 ], [ %6, %.loopexit.loopexit.i ]
  %7 = tail call noalias ptr @av_mallocz(i64 noundef 32) #10
  store ptr %7, ptr %3, align 8, !tbaa !23
  %.not15.i = icmp eq ptr %7, null
  br i1 %.not15.i, label %ff_make_format_list.exit, label %8

8:                                                ; preds = %.loopexit.i
  store i32 %.0.i, ptr %7, align 8, !tbaa !24
  %cond.i = icmp eq i32 %.0.i, 0
  br i1 %cond.i, label %ff_make_format_list.exit, label %9

9:                                                ; preds = %8
  %10 = zext nneg i32 %.0.i to i64
  %11 = tail call ptr @av_malloc_array(i64 noundef %10, i64 noundef 4) #10
  %12 = getelementptr inbounds nuw i8, ptr %7, i64 8
  store ptr %11, ptr %12, align 8, !tbaa !29
  %.not17.i = icmp eq ptr %11, null
  br i1 %.not17.i, label %13, label %.lr.ph.i

13:                                               ; preds = %9
  call void @av_freep(ptr noundef nonnull %3) #10
  br label %ff_make_format_list.exit

.lr.ph.i:                                         ; preds = %9, %.lr.ph.i
  %indvars.iv23.i = phi i64 [ %indvars.iv.next24.i, %.lr.ph.i ], [ %10, %9 ]
  %indvars.iv.next24.i = add nsw i64 %indvars.iv23.i, -1
  %14 = getelementptr inbounds i32, ptr %1, i64 %indvars.iv.next24.i
  %15 = load i32, ptr %14, align 4, !tbaa !19
  %16 = getelementptr inbounds i32, ptr %11, i64 %indvars.iv.next24.i
  store i32 %15, ptr %16, align 4, !tbaa !19
  %17 = icmp eq i64 %indvars.iv.next24.i, 0
  br i1 %17, label %ff_make_format_list.exit, label %.lr.ph.i, !llvm.loop !30

ff_make_format_list.exit:                         ; preds = %.lr.ph.i, %.loopexit.i, %8, %13
  %.011.i = phi ptr [ null, %13 ], [ null, %.loopexit.i ], [ %7, %8 ], [ %7, %.lr.ph.i ]
  call void @llvm.lifetime.end.p0(i64 8, ptr nonnull %3) #10
  %18 = call i32 @ff_set_common_color_spaces(ptr noundef %0, ptr noundef %.011.i)
  ret i32 %18
}